target datalayout = "e-m:e-p270:32:32-p271:32:32-p272:64:64-i64:64-i128:128-f80:128-n8:16:32:64-S128"
target triple = "x86_64-pc-linux-gnu"

%class.Function = type { %"class.std::__cxx11::basic_string", %"class.std::vector.11", ptr, %class.Effect, %"class.std::vector.16", %"class.std::vector.16", ptr, ptr, ptr, %"class.std::vector.3", %"class.std::vector.3", i8, i8, i8, i8, i32, %class.Effect, i8, %"class.std::__cxx11::basic_string", i32, %"class.std::vector.3" }
%"class.std::vector.11" = type { %"struct.std::_Vector_base.12" }
%"struct.std::_Vector_base.12" = type { %"struct.std::_Vector_base<Variable *, std::allocator<Variable *>>::_Vector_impl" }
%"struct.std::_Vector_base<Variable *, std::allocator<Variable *>>::_Vector_impl" = type { %"struct.std::_Vector_base<Variable *, std::allocator<Variable *>>::_Vector_impl_data" }
%"struct.std::_Vector_base<Variable *, std::allocator<Variable *>>::_Vector_impl_data" = type { ptr, ptr, ptr }
%"class.std::vector.16" = type { %"struct.std::_Vector_base.17" }
%"struct.std::_Vector_base.17" = type { %"struct.std::_Vector_base<Block *, std::allocator<Block *>>::_Vector_impl" }
%"struct.std::_Vector_base<Block *, std::allocator<Block *>>::_Vector_impl" = type { %"struct.std::_Vector_base<Block *, std::allocator<Block *>>::_Vector_impl_data" }
%"struct.std::_Vector_base<Block *, std::allocator<Block *>>::_Vector_impl_data" = type { ptr, ptr, ptr }
%class.Effect = type <{ %"class.std::vector.3", %"class.std::vector.3", %"class.std::vector.3", i8, i8, [6 x i8] }>
%"class.std::__cxx11::basic_string" = type { %"struct.std::__cxx11::basic_string<char>::_Alloc_hider", i64, %union.anon }
%"struct.std::__cxx11::basic_string<char>::_Alloc_hider" = type { ptr }
%union.anon = type { i64, [8 x i8] }
%"class.std::vector.3" = type { %"struct.std::_Vector_base.4" }
%"struct.std::_Vector_base.4" = type { %"struct.std::_Vector_base<const Variable *, std::allocator<const Variable *>>::_Vector_impl" }
%"struct.std::_Vector_base<const Variable *, std::allocator<const Variable *>>::_Vector_impl" = type { %"struct.std::_Vector_base<const Variable *, std::allocator<const Variable *>>::_Vector_impl_data" }
%"struct.std::_Vector_base<const Variable *, std::allocator<const Variable *>>::_Vector_impl_data" = type { ptr, ptr, ptr }
%class.Variable = type { ptr, %"class.std::vector.11", %"class.std::__cxx11::basic_string", ptr, ptr, i8, i8, i8, i8, i8, i8, ptr, i8, %class.CVQualifiers }
%class.CVQualifiers = type { ptr, i8, i8, %"class.std::vector.21", %"class.std::vector.21" }
%"class.std::vector.21" = type { %"struct.std::_Bvector_base" }
%"struct.std::_Bvector_base" = type { %"struct.std::_Bvector_base<std::allocator<bool>>::_Bvector_impl" }
%"struct.std::_Bvector_base<std::allocator<bool>>::_Bvector_impl" = type { %"struct.std::_Bvector_base<std::allocator<bool>>::_Bvector_impl_data" }
%"struct.std::_Bvector_base<std::allocator<bool>>::_Bvector_impl_data" = type { %"struct.std::_Bit_iterator", %"struct.std::_Bit_iterator", ptr }
%"struct.std::_Bit_iterator" = type { %"struct.std::_Bit_iterator_base.base", [4 x i8] }
%"struct.std::_Bit_iterator_base.base" = type <{ ptr, i32 }>
%class.CGContext = type { ptr, i32, i32, i32, %"class.std::vector", ptr, ptr, %"class.std::map", ptr, ptr, ptr, %class.Effect }
%"class.std::vector" = type { %"struct.std::_Vector_base" }
%"struct.std::_Vector_base" = type { %"struct.std::_Vector_base<const Block *, std::allocator<const Block *>>::_Vector_impl" }
%"struct.std::_Vector_base<const Block *, std::allocator<const Block *>>::_Vector_impl" = type { %"struct.std::_Vector_base<const Block *, std::allocator<const Block *>>::_Vector_impl_data" }
%"struct.std::_Vector_base<const Block *, std::allocator<const Block *>>::_Vector_impl_data" = type { ptr, ptr, ptr }
%"class.std::map" = type { %"class.std::_Rb_tree" }
%"class.std::_Rb_tree" = type { %"struct.std::_Rb_tree<const Variable *, std::pair<const Variable *const, unsigned int>, std::_Select1st<std::pair<const Variable *const, unsigned int>>, std::less<const Variable *>>::_Rb_tree_impl" }
%"struct.std::_Rb_tree<const Variable *, std::pair<const Variable *const, unsigned int>, std::_Select1st<std::pair<const Variable *const, unsigned int>>, std::less<const Variable *>>::_Rb_tree_impl" = type { %"struct.std::_Rb_tree_key_compare", %"struct.std::_Rb_tree_header" }
%"struct.std::_Rb_tree_key_compare" = type { %"struct.std::less" }
%"struct.std::less" = type { i8 }
%"struct.std::_Rb_tree_header" = type { %"struct.std::_Rb_tree_node_base", i64 }
%"struct.std::_Rb_tree_node_base" = type { i32, ptr, ptr, ptr }

@_ZN5Error8r_error_E = external global i32, align 4
@_ZN15StatementReturnC1EP5BlockRK18ExpressionVariable = dso_local unnamed_addr alias void (ptr, ptr, ptr), ptr @_ZN15StatementReturnC2EP5BlockRK18ExpressionVariable

; Function Attrs: mustprogress nounwind uwtable
define linkonce_odr dso_local noundef i32 @_ZN5Error9get_errorEv() #5 comdat align 2 {
  %1 = load i32, ptr @_ZN5Error8r_error_E, align 4
  ret i32 %1
}

; Function Attrs: mustprogress nounwind uwtable
define linkonce_odr dso_local noundef ptr @_ZNK9CGContext16get_current_funcEv(ptr noundef nonnull align 8 dereferenceable(216) %0) #5 comdat align 2 {
  %2 = alloca ptr, align 8
  store ptr %0, ptr %2, align 8
  %3 = load ptr, ptr %2, align 8
  %4 = getelementptr inbounds %class.CGContext, ptr %3, i32 0, i32 0
  %5 = load ptr, ptr %4, align 8
  ret ptr %5
}

; Function Attrs: mustprogress uwtable
define dso_local noundef ptr @_ZN15StatementReturn11make_randomER9CGContext(ptr noundef nonnull align 8 dereferenceable(216) %0) #4 align 2 personality ptr @__gxx_personality_v0 {
  %2 = alloca ptr, align 8
  %3 = alloca ptr, align 8
  %4 = alloca ptr, align 8
  %5 = alloca ptr, align 8
  %6 = alloca ptr, align 8
  %7 = alloca ptr, align 8
  %8 = alloca ptr, align 8
  %9 = alloca i32, align 4
  store ptr %0, ptr %3, align 8
  %10 = call noundef i32 @_ZN9DepthSpec19depth_guard_by_typeE5dTypei(i32 noundef 8, i32 noundef 0)
  %11 = icmp ne i32 %10, 0
  br i1 %11, label %12, label %13

12:                                               ; preds = %1
  store ptr null, ptr %2, align 8
  br label %46

13:                                               ; preds = %1
  %14 = load ptr, ptr %3, align 8
  %15 = call noundef ptr @_ZNK9CGContext16get_current_funcEv(ptr noundef nonnull align 8 dereferenceable(216) %14)
  store ptr %15, ptr %4, align 8
  %16 = load ptr, ptr %3, align 8
  %17 = call noundef ptr @_Z12get_fact_mgrPK9CGContext(ptr noundef %16)
  store ptr %17, ptr %5, align 8
  %18 = load ptr, ptr %3, align 8
  %19 = load ptr, ptr %4, align 8
  %20 = getelementptr inbounds %class.Function, ptr %19, i32 0, i32 2
  %21 = load ptr, ptr %20, align 8
  %22 = load ptr, ptr %4, align 8
  %23 = getelementptr inbounds %class.Function, ptr %22, i32 0, i32 8
  %24 = load ptr, ptr %23, align 8
  %25 = getelementptr inbounds %class.Variable, ptr %24, i32 0, i32 13
  %26 = call noundef ptr @_ZN18ExpressionVariable11make_randomER9CGContextPK4TypePK12CVQualifiersbb(ptr noundef nonnull align 8 dereferenceable(216) %18, ptr noundef %21, ptr noundef %25, i1 noundef zeroext false, i1 noundef zeroext true)
  store ptr %26, ptr %6, align 8
  %27 = load ptr, ptr %6, align 8
  %28 = load ptr, ptr %4, align 8
  %29 = getelementptr inbounds %class.Function, ptr %28, i32 0, i32 2
  %30 = load ptr, ptr %29, align 8
  call void @_ZN10Expression18check_and_set_castEPK4Type(ptr noundef nonnull align 8 dereferenceable(24) %27, ptr noundef %30)
  %31 = call noundef i32 @_ZN5Error9get_errorEv()
  %32 = icmp ne i32 %31, 0
  br i1 %32, label %33, label %34

33:                                               ; preds = %13
  store ptr null, ptr %2, align 8
  br label %46

34:                                               ; preds = %13
  %35 = call noalias noundef nonnull ptr @_Znwm(i64 noundef 40) #12
  %36 = load ptr, ptr %3, align 8
  %37 = invoke noundef ptr @_ZNK9CGContext17get_current_blockEv(ptr noundef nonnull align 8 dereferenceable(216) %36)
          to label %38 unwind label %42

38:                                               ; preds = %34
  %39 = load ptr, ptr %6, align 8
  invoke void @_ZN15StatementReturnC1EP5BlockRK18ExpressionVariable(ptr noundef nonnull align 8 dereferenceable(40) %35, ptr noundef %37, ptr noundef nonnull align 8 dereferenceable(40) %39)
          to label %40 unwind label %42

40:                                               ; preds = %38
  store ptr %35, ptr %7, align 8
  %41 = load ptr, ptr %7, align 8
  store ptr %41, ptr %2, align 8
  br label %46

42:                                               ; preds = %38, %34
  %43 = landingpad { ptr, i32 }
          cleanup
  %44 = extractvalue { ptr, i32 } %43, 0
  store ptr %44, ptr %8, align 8
  %45 = extractvalue { ptr, i32 } %43, 1
  store i32 %45, ptr %9, align 4
  call void @_ZdlPv(ptr noundef %35) #13
  br label %48

46:                                               ; preds = %40, %33, %12
  %47 = load ptr, ptr %2, align 8
  ret ptr %47

48:                                               ; preds = %42
  %49 = load ptr, ptr %8, align 8
  %50 = load i32, ptr %9, align 4
  %51 = insertvalue { ptr, i32 } poison, ptr %49, 0
  %52 = insertvalue { ptr, i32 } %51, i32 %50, 1
  resume { ptr, i32 } %52
}