; Function Attrs: mustprogress uwtable
define dso_local noundef ptr @_ZN15StatementReturn11make_randomER9CGContext(ptr noundef nonnull align 8 dereferenceable(216) %0) local_unnamed_addr #3 align 2 personality ptr @__gxx_personality_v0 {
  %2 = tail call noundef i32 @_ZN9DepthSpec19depth_guard_by_typeE5dTypei(i32 noundef 8, i32 noundef 0)
  %.not = icmp eq i32 %2, 0
  br i1 %.not, label %3, label %21

3:                                                ; preds = %1
  %4 = load ptr, ptr %0, align 8
  %5 = tail call noundef ptr @_Z12get_fact_mgrPK9CGContext(ptr noundef nonnull %0)
  %6 = getelementptr inbounds i8, ptr %4, i64 56
  %7 = load ptr, ptr %6, align 8
  %8 = getelementptr inbounds i8, ptr %4, i64 208
  %9 = load ptr, ptr %8, align 8
  %10 = getelementptr inbounds i8, ptr %9, i64 104
  %11 = tail call noundef ptr @_ZN18ExpressionVariable11make_randomER9CGContextPK4TypePK12CVQualifiersbb(ptr noundef nonnull align 8 dereferenceable(216) %0, ptr noundef %7, ptr noundef nonnull %10, i1 noundef zeroext false, i1 noundef zeroext true)
  %12 = load ptr, ptr %6, align 8
  tail call void @_ZN10Expression18check_and_set_castEPK4Type(ptr noundef nonnull align 8 dereferenceable(24) %11, ptr noundef %12)
  %13 = load i32, ptr @_ZN5Error8r_error_E, align 4
  %.not12 = icmp eq i32 %13, 0
  br i1 %.not12, label %14, label %21

14:                                               ; preds = %3
  %15 = tail call noalias noundef nonnull dereferenceable(40) ptr @_Znwm(i64 noundef 40) #14
  %16 = invoke noundef ptr @_ZNK9CGContext17get_current_blockEv(ptr noundef nonnull align 8 dereferenceable(216) %0)
          to label %17 unwind label %19

17:                                               ; preds = %14
  invoke void @_ZN9StatementC2E14eStatementTypeP5Block(ptr noundef nonnull align 8 dereferenceable(32) %15, i32 noundef 5, ptr noundef %16)
          to label %_ZN15StatementReturnC2EP5BlockRK18ExpressionVariable.exit unwind label %19

_ZN15StatementReturnC2EP5BlockRK18ExpressionVariable.exit: ; preds = %17
  store ptr getelementptr inbounds ({ [12 x ptr] }, ptr @_ZTV15StatementReturn, i64 0, i32 0, i64 2), ptr %15, align 8
  %18 = getelementptr inbounds i8, ptr %15, i64 32
  store ptr %11, ptr %18, align 8
  br label %21

19:                                               ; preds = %17, %14
  %20 = landingpad { ptr, i32 }
          cleanup
  tail call void @_ZdlPv(ptr noundef nonnull %15) #15
  resume { ptr, i32 } %20

21:                                               ; preds = %_ZN15StatementReturnC2EP5BlockRK18ExpressionVariable.exit, %3, %1
  %.0 = phi ptr [ null, %1 ], [ null, %3 ], [ %15, %_ZN15StatementReturnC2EP5BlockRK18ExpressionVariable.exit ]
  ret ptr %.0
}